target datalayout = "e-m:e-p270:32:32-p271:32:32-p272:64:64-i64:64-i128:128-f80:128-n8:16:32:64-S128"
target triple = "x86_64-pc-linux-gnu"

%struct.mbedtls_cipher_info_t = type { i32, i32, i32, ptr, i32, i32, i32, ptr }
%struct.mbedtls_cipher_context_t = type { ptr, i32, i32, [16 x i8], i64, [16 x i8], i64, ptr }

; Function Attrs: mustprogress uwtable
define hidden i32 @mbedtls_cipher_set_iv(ptr noundef %0, ptr noundef %1, i64 noundef %2) #4 {
  %4 = alloca i32, align 4
  %5 = alloca ptr, align 8
  %6 = alloca ptr, align 8
  %7 = alloca i64, align 8
  %8 = alloca i64, align 8
  %9 = alloca i32, align 4
  store ptr %0, ptr %5, align 8, !tbaa !36
  store ptr %1, ptr %6, align 8, !tbaa !20
  store i64 %2, ptr %7, align 8, !tbaa !52
  call void @llvm.lifetime.start.p0(i64 8, ptr %8) #8
  br label %10

10:                                               ; preds = %3
  br label %11

11:                                               ; preds = %10
  br label %12

12:                                               ; preds = %11
  br label %13

13:                                               ; preds = %12
  br label %14

14:                                               ; preds = %13
  br label %15

15:                                               ; preds = %14
  %16 = load ptr, ptr %5, align 8, !tbaa !36
  %17 = getelementptr inbounds nuw %struct.mbedtls_cipher_context_t, ptr %16, i32 0, i32 0
  %18 = load ptr, ptr %17, align 8, !tbaa !42
  %19 = icmp eq ptr %18, null
  br i1 %19, label %20, label %21

20:                                               ; preds = %15
  store i32 -24832, ptr %4, align 4
  store i32 1, ptr %9, align 4
  br label %77

21:                                               ; preds = %15
  %22 = load i64, ptr %7, align 8, !tbaa !52
  %23 = icmp ugt i64 %22, 16
  br i1 %23, label %24, label %25

24:                                               ; preds = %21
  store i32 -24704, ptr %4, align 4
  store i32 1, ptr %9, align 4
  br label %77

25:                                               ; preds = %21
  %26 = load ptr, ptr %5, align 8, !tbaa !36
  %27 = getelementptr inbounds nuw %struct.mbedtls_cipher_context_t, ptr %26, i32 0, i32 0
  %28 = load ptr, ptr %27, align 8, !tbaa !42
  %29 = getelementptr inbounds nuw %struct.mbedtls_cipher_info_t, ptr %28, i32 0, i32 5
  %30 = load i32, ptr %29, align 4, !tbaa !47
  %31 = and i32 %30, 1
  %32 = icmp ne i32 %31, 0
  br i1 %32, label %33, label %35

33:                                               ; preds = %25
  %34 = load i64, ptr %7, align 8, !tbaa !52
  store i64 %34, ptr %8, align 8, !tbaa !52
  br label %47

35:                                               ; preds = %25
  %36 = load ptr, ptr %5, align 8, !tbaa !36
  %37 = getelementptr inbounds nuw %struct.mbedtls_cipher_context_t, ptr %36, i32 0, i32 0
  %38 = load ptr, ptr %37, align 8, !tbaa !42
  %39 = getelementptr inbounds nuw %struct.mbedtls_cipher_info_t, ptr %38, i32 0, i32 4
  %40 = load i32, ptr %39, align 8, !tbaa !53
  %41 = zext i32 %40 to i64
  store i64 %41, ptr %8, align 8, !tbaa !52
  %42 = load i64, ptr %8, align 8, !tbaa !52
  %43 = load i64, ptr %7, align 8, !tbaa !52
  %44 = icmp ugt i64 %42, %43
  br i1 %44, label %45, label %46

45:                                               ; preds = %35
  store i32 -24832, ptr %4, align 4
  store i32 1, ptr %9, align 4
  br label %77

46:                                               ; preds = %35
  br label %47

47:                                               ; preds = %46, %33
  %48 = load ptr, ptr %5, align 8, !tbaa !36
  %49 = getelementptr inbounds nuw %struct.mbedtls_cipher_context_t, ptr %48, i32 0, i32 0
  %50 = load ptr, ptr %49, align 8, !tbaa !42
  %51 = getelementptr inbounds nuw %struct.mbedtls_cipher_info_t, ptr %50, i32 0, i32 1
  %52 = load i32, ptr %51, align 4, !tbaa !34
  %53 = icmp eq i32 6, %52
  br i1 %53, label %54, label %64

54:                                               ; preds = %47
  %55 = load ptr, ptr %5, align 8, !tbaa !36
  %56 = getelementptr inbounds nuw %struct.mbedtls_cipher_context_t, ptr %55, i32 0, i32 7
  %57 = load ptr, ptr %56, align 8, !tbaa !38
  %58 = load ptr, ptr %5, align 8, !tbaa !36
  %59 = getelementptr inbounds nuw %struct.mbedtls_cipher_context_t, ptr %58, i32 0, i32 2
  %60 = load i32, ptr %59, align 4, !tbaa !49
  %61 = load ptr, ptr %6, align 8, !tbaa !20
  %62 = load i64, ptr %7, align 8, !tbaa !52
  %63 = call i32 @mbedtls_gcm_starts(ptr noundef %57, i32 noundef %60, ptr noundef %61, i64 noundef %62)
  store i32 %63, ptr %4, align 4
  store i32 1, ptr %9, align 4
  br label %77

64:                                               ; preds = %47
  %65 = load i64, ptr %8, align 8, !tbaa !52
  %66 = icmp ne i64 %65, 0
  br i1 %66, label %67, label %76

67:                                               ; preds = %64
  %68 = load ptr, ptr %5, align 8, !tbaa !36
  %69 = getelementptr inbounds nuw %struct.mbedtls_cipher_context_t, ptr %68, i32 0, i32 5
  %70 = getelementptr inbounds [16 x i8], ptr %69, i64 0, i64 0
  %71 = load ptr, ptr %6, align 8, !tbaa !20
  %72 = load i64, ptr %8, align 8, !tbaa !52
  call void @llvm.memcpy.p0.p0.i64(ptr align 8 %70, ptr align 1 %71, i64 %72, i1 false)
  %73 = load i64, ptr %8, align 8, !tbaa !52
  %74 = load ptr, ptr %5, align 8, !tbaa !36
  %75 = getelementptr inbounds nuw %struct.mbedtls_cipher_context_t, ptr %74, i32 0, i32 6
  store i64 %73, ptr %75, align 8, !tbaa !54
  br label %76

76:                                               ; preds = %67, %64
  store i32 0, ptr %4, align 4
  store i32 1, ptr %9, align 4
  br label %77

77:                                               ; preds = %76, %54, %45, %24, %20
  call void @llvm.lifetime.end.p0(i64 8, ptr %8) #8
  %78 = load i32, ptr %4, align 4
  ret i32 %78
}