; Function Attrs: mustprogress uwtable
define hidden i32 @mbedtls_cipher_set_iv(ptr noundef captures(none) %0, ptr noundef %1, i64 noundef %2) local_unnamed_addr #8 {
  %4 = load ptr, ptr %0, align 8, !tbaa !33
  %5 = icmp eq ptr %4, null
  br i1 %5, label %31, label %6

6:                                                ; preds = %3
  %7 = icmp ugt i64 %2, 16
  br i1 %7, label %31, label %8

8:                                                ; preds = %6
  %9 = getelementptr inbounds nuw i8, ptr %4, i64 28
  %10 = load i32, ptr %9, align 4, !tbaa !36
  %11 = and i32 %10, 1
  %.not = icmp eq i32 %11, 0
  br i1 %.not, label %12, label %17

12:                                               ; preds = %8
  %13 = getelementptr inbounds nuw i8, ptr %4, i64 24
  %14 = load i32, ptr %13, align 8, !tbaa !40
  %15 = zext i32 %14 to i64
  %16 = icmp samesign ult i64 %2, %15
  br i1 %16, label %31, label %17

17:                                               ; preds = %8, %12
  %.0 = phi i64 [ %15, %12 ], [ %2, %8 ]
  %18 = getelementptr inbounds nuw i8, ptr %4, i64 4
  %19 = load i32, ptr %18, align 4, !tbaa !27
  %20 = icmp eq i32 %19, 6
  br i1 %20, label %21, label %27

21:                                               ; preds = %17
  %22 = getelementptr inbounds nuw i8, ptr %0, i64 64
  %23 = load ptr, ptr %22, align 8, !tbaa !29
  %24 = getelementptr inbounds nuw i8, ptr %0, i64 12
  %25 = load i32, ptr %24, align 4, !tbaa !38
  %26 = tail call i32 @mbedtls_gcm_starts(ptr noundef %23, i32 noundef %25, ptr noundef %1, i64 noundef %2)
  br label %31

27:                                               ; preds = %17
  %.not22 = icmp eq i64 %.0, 0
  br i1 %.not22, label %31, label %28

28:                                               ; preds = %27
  %29 = getelementptr inbounds nuw i8, ptr %0, i64 40
  tail call void @llvm.memcpy.p0.p0.i64(ptr nonnull align 8 %29, ptr align 1 %1, i64 %.0, i1 false)
  %30 = getelementptr inbounds nuw i8, ptr %0, i64 56
  store i64 %.0, ptr %30, align 8, !tbaa !41
  br label %31

31:                                               ; preds = %27, %28, %12, %6, %3, %21
  %.018 = phi i32 [ %26, %21 ], [ -24832, %3 ], [ -24704, %6 ], [ -24832, %12 ], [ 0, %28 ], [ 0, %27 ]
  ret i32 %.018
}